(lp0
(lp1
(lp2
F-13.012028104704717
aF-4.561004617806186
aF-0.96369298246649
aF-2.406844776666864
aF-1.8946266899894157
aF-6.02581512546441
aF-3.9304927282092725
aF-3.526401668651815
aF0.2999105463003591
aF-1.6472527021955812
aF-5.323537603013236
aF-2.140128391724968
aF-4.897717477737985
aF-5.081330931961788
aF1.3323501775694955
aF-4.92606127790722
aF-8.854083783590585
aF-6.504046312901101
aF-25.989491597734567
aF8.734318309131826
aF-0.09077340733807995
aF-5.306195058927322
aF-29.87877121027006
aF-52.495473653780515
aF-32.163894747289156
aF58.32840606408226
aa(lp3
F88.7697654655162
aF38.00762524454959
aF16.0511476544595
aF-0.29953204116838145
aF1.643229784373742
aF47.05639026448675
aF19.083331843534747
aF3.4069456211561397
aF2.254693835709449
aF2.2059601830129805
aF8.729270499796973
aF1.2218922024371925
aF-0.41944386649888016
aF1.0311275311782024
aF-2.255554590838809
aF-0.36173991902074565
aF2.0726925410621386
aF-0.4057856062206578
aF-0.326600775098255
aF-0.6469133198933403
aF0.4248838275212817
aF-1.7824481395279212
aF-0.007795964083497193
aF-1.5162659304132409
aF71.86183744503239
aF-85.38213179438965
aa(lp4
F-11.069053957616134
aF1.198134912534778
aF-0.9317222186382433
aF-0.857812423210753
aF-2.2905509544219163
aF-1.0283281531326076
aF-4.733738946384946
aF-1.3585185601624157
aF-5.776640992988917
aF-3.613435138477446
aF1.7418469096188651
aF-6.558766538466868
aF-2.3235153626470284
aF-10.062995185733472
aF-29.39266983023132
aF2.7200846317502707
aF-1.7732786059791124
aF-10.186991356302844
aF-26.70597953213822
aF-50.407305210488204
aF-3.5475167187979744
aF0.68487814933194
aF0.28633621929297876
aF-8.43377133457437
aF-23.245168872825626
aF73.60028492746363
aa(lp5
F-11.317465145183053
aF-6.198662694179452
aF1.0994388164554019
aF-2.5464552448542395
aF-1.0109145681118283
aF6.180910821763977
aF-5.362713281741474
aF-3.1626617580933334
aF-1.180002259870519
aF0.325103131822328
aF-6.326711888785896
aF-2.3830592037633838
aF-3.8576702888300543
aF0.2437300441429642
aF0.1122345069064888
aF0.3096821805270635
aF-3.421699571444757
aF0.9203495537980595
aF4.111794463903993
aF1.1722020189248146
aF-2.898452075578229
aF-0.6688526559057091
aF1.5471909311286691
aF5.030973775397582
aF-26.413853705917187
aF23.49091353321702
aa(lp6
F-10.556465457607175
aF-4.684554438830452
aF-0.16977398867459517
aF1.4197787635910362
aF1.0374673810904151
aF0.5884201021990382
aF-0.4720669100292299
aF-2.9444906700452553
aF6.622434093344739
aF3.3570428770266685
aF-0.47447916827592845
aF0.6162704252692012
aF-4.009884718736474
aF3.044630067107291
aF0.7145765943977246
aF3.8420442798033405
aF-4.030630661400395
aF-1.5529284236535035
aF3.673658723535789
aF3.4621843894799045
aF6.490146960553931
aF4.675704108635854
aF3.143985145171016
aF-4.769457332842415
aF-12.974702176297374
aF25.092246302390514
aaa(lp7
(lp8
F10.263291682874636
aF-31.5331488964377
aF9.699125114314953
aF14.51473338754172
aF7.762326226483134
aF-31.024630909244888
aaa.